target datalayout = "e-m:e-p270:32:32-p271:32:32-p272:64:64-i64:64-i128:128-f80:128-n8:16:32:64-S128"
target triple = "x86_64-pc-linux-gnu"

@.str.4 = private unnamed_addr constant [1 x i8] zeroinitializer, align 1

; Function Attrs: nounwind uwtable
define internal void @set_str(ptr noundef %0, ptr noundef %1, i64 noundef %2, i8 noundef signext %3, ptr noundef %4) #0 {
  %6 = alloca ptr, align 8
  %7 = alloca ptr, align 8
  %8 = alloca i64, align 8
  %9 = alloca i8, align 1
  %10 = alloca ptr, align 8
  %11 = alloca i8, align 1
  store ptr %0, ptr %6, align 8, !tbaa !133
  store ptr %1, ptr %7, align 8, !tbaa !133
  store i64 %2, ptr %8, align 8, !tbaa !154
  store i8 %3, ptr %9, align 1, !tbaa !117
  store ptr %4, ptr %10, align 8, !tbaa !133
  call void @llvm.lifetime.start.p0(i64 1, ptr %11) #13
  %12 = load ptr, ptr %7, align 8, !tbaa !133
  %13 = icmp eq ptr %12, null
  br i1 %13, label %14, label %15

14:                                               ; preds = %5
  store ptr @.str.4, ptr %7, align 8, !tbaa !133
  br label %15

15:                                               ; preds = %14, %5
  br label %16

16:                                               ; preds = %54, %15
  %17 = load ptr, ptr %7, align 8, !tbaa !133
  %18 = getelementptr inbounds nuw i8, ptr %17, i32 1
  store ptr %18, ptr %7, align 8, !tbaa !133
  %19 = load i8, ptr %17, align 1, !tbaa !117
  store i8 %19, ptr %11, align 1, !tbaa !117
  %20 = zext i8 %19 to i32
  %21 = icmp ne i32 %20, 0
  br i1 %21, label %22, label %25

22:                                               ; preds = %16
  %23 = load i64, ptr %8, align 8, !tbaa !154
  %24 = icmp ugt i64 %23, 0
  br label %25

25:                                               ; preds = %22, %16
  %26 = phi i1 [ false, %16 ], [ %24, %22 ]
  br i1 %26, label %27, label %60

27:                                               ; preds = %25
  %28 = load i8, ptr %11, align 1, !tbaa !117
  %29 = zext i8 %28 to i32
  %30 = icmp sge i32 %29, 128
  br i1 %30, label %39, label %31

31:                                               ; preds = %27
  %32 = load ptr, ptr %10, align 8, !tbaa !133
  %33 = load i8, ptr %11, align 1, !tbaa !117
  %34 = zext i8 %33 to i64
  %35 = getelementptr inbounds nuw i8, ptr %32, i64 %34
  %36 = load i8, ptr %35, align 1, !tbaa !117
  %37 = sext i8 %36 to i32
  %38 = icmp eq i32 %37, 0
  br i1 %38, label %39, label %54

39:                                               ; preds = %31, %27
  %40 = load i8, ptr %11, align 1, !tbaa !117
  %41 = zext i8 %40 to i32
  %42 = icmp sge i32 %41, 97
  br i1 %42, label %43, label %52

43:                                               ; preds = %39
  %44 = load i8, ptr %11, align 1, !tbaa !117
  %45 = zext i8 %44 to i32
  %46 = icmp sle i32 %45, 122
  br i1 %46, label %47, label %52

47:                                               ; preds = %43
  %48 = load i8, ptr %11, align 1, !tbaa !117
  %49 = zext i8 %48 to i32
  %50 = sub nsw i32 %49, 32
  %51 = trunc i32 %50 to i8
  store i8 %51, ptr %11, align 1, !tbaa !117
  br label %53

52:                                               ; preds = %43, %39
  store i8 95, ptr %11, align 1, !tbaa !117
  br label %53

53:                                               ; preds = %52, %47
  br label %54

54:                                               ; preds = %53, %31
  %55 = load i8, ptr %11, align 1, !tbaa !117
  %56 = load ptr, ptr %6, align 8, !tbaa !133
  %57 = getelementptr inbounds nuw i8, ptr %56, i32 1
  store ptr %57, ptr %6, align 8, !tbaa !133
  store i8 %55, ptr %56, align 1, !tbaa !117
  %58 = load i64, ptr %8, align 8, !tbaa !154
  %59 = add i64 %58, -1
  store i64 %59, ptr %8, align 8, !tbaa !154
  br label %16, !llvm.loop !437

60:                                               ; preds = %25
  %61 = load i64, ptr %8, align 8, !tbaa !154
  %62 = icmp ugt i64 %61, 0
  br i1 %62, label %63, label %69

63:                                               ; preds = %60
  %64 = load ptr, ptr %6, align 8, !tbaa !133
  %65 = load i8, ptr %9, align 1, !tbaa !117
  %66 = sext i8 %65 to i32
  %67 = trunc i32 %66 to i8
  %68 = load i64, ptr %8, align 8, !tbaa !154
  call void @llvm.memset.p0.i64(ptr align 1 %64, i8 %67, i64 %68, i1 false)
  br label %69

69:                                               ; preds = %63, %60
  call void @llvm.lifetime.end.p0(i64 1, ptr %11) #13
  ret void
}

; Function Attrs: nounwind uwtable
define internal i32 @set_str_d_characters_bp(ptr noundef %0, ptr noundef %1, i32 noundef %2, i32 noundef %3, ptr noundef %4, i32 noundef %5) #0 {
  %7 = alloca ptr, align 8
  %8 = alloca ptr, align 8
  %9 = alloca i32, align 4
  %10 = alloca i32, align 4
  %11 = alloca ptr, align 8
  %12 = alloca i32, align 4
  %13 = alloca i32, align 4
  store ptr %0, ptr %7, align 8, !tbaa !9
  store ptr %1, ptr %8, align 8, !tbaa !133
  store i32 %2, ptr %9, align 4, !tbaa !11
  store i32 %3, ptr %10, align 4, !tbaa !11
  store ptr %4, ptr %11, align 8, !tbaa !133
  store i32 %5, ptr %12, align 4, !tbaa !11
  call void @llvm.lifetime.start.p0(i64 4, ptr %13) #13
  %14 = load i32, ptr %12, align 4, !tbaa !11
  switch i32 %14, label %51 [
    i32 0, label %15
    i32 1, label %26
    i32 2, label %37
    i32 3, label %37
  ]

15:                                               ; preds = %6
  %16 = load ptr, ptr %8, align 8, !tbaa !133
  %17 = load i32, ptr %9, align 4, !tbaa !11
  %18 = sext i32 %17 to i64
  %19 = getelementptr inbounds i8, ptr %16, i64 %18
  %20 = load ptr, ptr %11, align 8, !tbaa !133
  %21 = load i32, ptr %10, align 4, !tbaa !11
  %22 = load i32, ptr %9, align 4, !tbaa !11
  %23 = sub nsw i32 %21, %22
  %24 = add nsw i32 %23, 1
  %25 = sext i32 %24 to i64
  call void @set_str(ptr noundef %19, ptr noundef %20, i64 noundef %25, i8 noundef signext 32, ptr noundef @d_characters_map)
  store i32 0, ptr %13, align 4, !tbaa !11
  br label %52

26:                                               ; preds = %6
  %27 = load ptr, ptr %8, align 8, !tbaa !133
  %28 = load i32, ptr %9, align 4, !tbaa !11
  %29 = sext i32 %28 to i64
  %30 = getelementptr inbounds i8, ptr %27, i64 %29
  %31 = load ptr, ptr %11, align 8, !tbaa !133
  %32 = load i32, ptr %10, align 4, !tbaa !11
  %33 = load i32, ptr %9, align 4, !tbaa !11
  %34 = sub nsw i32 %32, %33
  %35 = add nsw i32 %34, 1
  %36 = sext i32 %35 to i64
  call void @set_str(ptr noundef %30, ptr noundef %31, i64 noundef %36, i8 noundef signext 32, ptr noundef @d1_characters_map)
  store i32 0, ptr %13, align 4, !tbaa !11
  br label %52

37:                                               ; preds = %6, %6
  %38 = load ptr, ptr %7, align 8, !tbaa !9
  %39 = load ptr, ptr %8, align 8, !tbaa !133
  %40 = load i32, ptr %9, align 4, !tbaa !11
  %41 = sext i32 %40 to i64
  %42 = getelementptr inbounds i8, ptr %39, i64 %41
  %43 = load ptr, ptr %11, align 8, !tbaa !133
  %44 = load i32, ptr %10, align 4, !tbaa !11
  %45 = load i32, ptr %9, align 4, !tbaa !11
  %46 = sub nsw i32 %44, %45
  %47 = add nsw i32 %46, 1
  %48 = sext i32 %47 to i64
  %49 = load i32, ptr %12, align 4, !tbaa !11
  %50 = call i32 @set_str_utf16be(ptr noundef %38, ptr noundef %42, ptr noundef %43, i64 noundef %48, i16 noundef zeroext 32, i32 noundef %49)
  store i32 %50, ptr %13, align 4, !tbaa !11
  br label %52

51:                                               ; preds = %6
  store i32 -30, ptr %13, align 4, !tbaa !11
  br label %52

52:                                               ; preds = %51, %37, %26, %15
  %53 = load i32, ptr %13, align 4, !tbaa !11
  call void @llvm.lifetime.end.p0(i64 4, ptr %13) #13
  ret i32 %53
}